(lp0
I12
a(lp1
cpygame
__color_constructor
p2
(I143
I197
I156
I255
tp3
Rp4
ag2
(I93
I138
I123
I255
tp5
Rp6
ag2
(I117
I167
I138
I255
tp7
Rp8
ag2
(I77
I174
I112
I255
tp9
Rp10
ag2
(I54
I154
I82
I255
tp11
Rp12
ag2
(I150
I179
I151
I255
tp13
Rp14
ag2
(I126
I146
I135
I255
tp15
Rp16
ag2
(I94
I159
I126
I255
tp17
Rp18
aa.