(lp0
I20
a(lp1
cpygame
__color_constructor
p2
(I203
I122
I111
I255
tp3
Rp4
ag2
(I159
I75
I99
I255
tp5
Rp6
ag2
(I128
I50
I58
I255
tp7
Rp8
ag2
(I210
I150
I143
I255
tp9
Rp10
ag2
(I228
I114
I55
I255
tp11
Rp12
ag2
(I255
I132
I101
I255
tp13
Rp14
ag2
(I195
I81
I36
I255
tp15
Rp16
aa.