(lp0
I7
a(lp1
cpygame
__color_constructor
p2
(I190
I195
I168
I255
tp3
Rp4
ag2
(I110
I123
I116
I255
tp5
Rp6
ag2
(I143
I156
I132
I255
tp7
Rp8
ag2
(I171
I180
I124
I255
tp9
Rp10
ag2
(I152
I167
I116
I255
tp11
Rp12
ag2
(I123
I143
I93
I255
tp13
Rp14
ag2
(I162
I168
I145
I255
tp15
Rp16
aa.